target datalayout = "e-m:e-p270:32:32-p271:32:32-p272:64:64-i64:64-i128:128-f80:128-n8:16:32:64-S128"
target triple = "x86_64-pc-linux-gnu"

%"class.std::unique_ptr.103" = type { %"struct.std::__uniq_ptr_data.104" }
%"struct.std::__uniq_ptr_data.104" = type { %"class.std::__uniq_ptr_impl.105" }
%"class.std::__uniq_ptr_impl.105" = type { %"class.std::tuple.106" }
%"class.std::tuple.106" = type { %"struct.std::_Tuple_impl.107" }
%"struct.std::_Tuple_impl.107" = type { %"struct.std::_Head_base.110" }
%"struct.std::_Head_base.110" = type { ptr }
%"class.gmx::ModularSimulatorAlgorithm" = type { %"class.std::vector", %"class.__gnu_cxx::__normal_iterator", %"class.std::vector.5", %"class.std::vector.10", %"class.std::vector.15", %"class.std::vector.15", %"class.std::vector.20", %"class.std::vector.20", %"class.std::unique_ptr", %"class.std::unique_ptr.27", %"class.std::unique_ptr.35", %"class.std::unique_ptr.43", %"class.std::unique_ptr.51", %"class.std::unique_ptr.59", %"class.std::unique_ptr.67", %"class.std::unique_ptr.75", %"class.std::unique_ptr.83", %"class.std::unique_ptr.91", %"class.std::map", i64, i8, %"class.std::unique_ptr.103", i8, i64, %"class.std::__cxx11::basic_string", ptr, ptr, ptr, ptr, ptr, ptr, ptr, ptr, ptr }
%"class.std::vector" = type { %"struct.std::_Vector_base" }
%"struct.std::_Vector_base" = type { %"struct.std::_Vector_base<std::function<void ()>, std::allocator<std::function<void ()>>>::_Vector_impl" }
%"struct.std::_Vector_base<std::function<void ()>, std::allocator<std::function<void ()>>>::_Vector_impl" = type { %"struct.std::_Vector_base<std::function<void ()>, std::allocator<std::function<void ()>>>::_Vector_impl_data" }
%"struct.std::_Vector_base<std::function<void ()>, std::allocator<std::function<void ()>>>::_Vector_impl_data" = type { ptr, ptr, ptr }
%"class.__gnu_cxx::__normal_iterator" = type { ptr }
%"class.std::vector.5" = type { %"struct.std::_Vector_base.6" }
%"struct.std::_Vector_base.6" = type { %"struct.std::_Vector_base<std::unique_ptr<gmx::ISignaller>, std::allocator<std::unique_ptr<gmx::ISignaller>>>::_Vector_impl" }
%"struct.std::_Vector_base<std::unique_ptr<gmx::ISignaller>, std::allocator<std::unique_ptr<gmx::ISignaller>>>::_Vector_impl" = type { %"struct.std::_Vector_base<std::unique_ptr<gmx::ISignaller>, std::allocator<std::unique_ptr<gmx::ISignaller>>>::_Vector_impl_data" }
%"struct.std::_Vector_base<std::unique_ptr<gmx::ISignaller>, std::allocator<std::unique_ptr<gmx::ISignaller>>>::_Vector_impl_data" = type { ptr, ptr, ptr }
%"class.std::vector.10" = type { %"struct.std::_Vector_base.11" }
%"struct.std::_Vector_base.11" = type { %"struct.std::_Vector_base<std::unique_ptr<gmx::ISimulatorElement>, std::allocator<std::unique_ptr<gmx::ISimulatorElement>>>::_Vector_impl" }
%"struct.std::_Vector_base<std::unique_ptr<gmx::ISimulatorElement>, std::allocator<std::unique_ptr<gmx::ISimulatorElement>>>::_Vector_impl" = type { %"struct.std::_Vector_base<std::unique_ptr<gmx::ISimulatorElement>, std::allocator<std::unique_ptr<gmx::ISimulatorElement>>>::_Vector_impl_data" }
%"struct.std::_Vector_base<std::unique_ptr<gmx::ISimulatorElement>, std::allocator<std::unique_ptr<gmx::ISimulatorElement>>>::_Vector_impl_data" = type { ptr, ptr, ptr }
%"class.std::vector.15" = type { %"struct.std::_Vector_base.16" }
%"struct.std::_Vector_base.16" = type { %"struct.std::_Vector_base<gmx::ISimulatorElement *, std::allocator<gmx::ISimulatorElement *>>::_Vector_impl" }
%"struct.std::_Vector_base<gmx::ISimulatorElement *, std::allocator<gmx::ISimulatorElement *>>::_Vector_impl" = type { %"struct.std::_Vector_base<gmx::ISimulatorElement *, std::allocator<gmx::ISimulatorElement *>>::_Vector_impl_data" }
%"struct.std::_Vector_base<gmx::ISimulatorElement *, std::allocator<gmx::ISimulatorElement *>>::_Vector_impl_data" = type { ptr, ptr, ptr }
%"class.std::vector.20" = type { %"struct.std::_Vector_base.21" }
%"struct.std::_Vector_base.21" = type { %"struct.std::_Vector_base<std::function<void (long, double, const std::function<void (std::function<void ()>)> &)>, std::allocator<std::function<void (long, double, const std::function<void (std::function<void ()>)> &)>>>::_Vector_impl" }
%"struct.std::_Vector_base<std::function<void (long, double, const std::function<void (std::function<void ()>)> &)>, std::allocator<std::function<void (long, double, const std::function<void (std::function<void ()>)> &)>>>::_Vector_impl" = type { %"struct.std::_Vector_base<std::function<void (long, double, const std::function<void (std::function<void ()>)> &)>, std::allocator<std::function<void (long, double, const std::function<void (std::function<void ()>)> &)>>>::_Vector_impl_data" }
%"struct.std::_Vector_base<std::function<void (long, double, const std::function<void (std::function<void ()>)> &)>, std::allocator<std::function<void (long, double, const std::function<void (std::function<void ()>)> &)>>>::_Vector_impl_data" = type { ptr, ptr, ptr }
%"class.std::unique_ptr" = type { %"struct.std::__uniq_ptr_data" }
%"struct.std::__uniq_ptr_data" = type { %"class.std::__uniq_ptr_impl" }
%"class.std::__uniq_ptr_impl" = type { %"class.std::tuple" }
%"class.std::tuple" = type { %"struct.std::_Tuple_impl" }
%"struct.std::_Tuple_impl" = type { %"struct.std::_Head_base.26" }
%"struct.std::_Head_base.26" = type { ptr }
%"class.std::unique_ptr.27" = type { %"struct.std::__uniq_ptr_data.28" }
%"struct.std::__uniq_ptr_data.28" = type { %"class.std::__uniq_ptr_impl.29" }
%"class.std::__uniq_ptr_impl.29" = type { %"class.std::tuple.30" }
%"class.std::tuple.30" = type { %"struct.std::_Tuple_impl.31" }
%"struct.std::_Tuple_impl.31" = type { %"struct.std::_Head_base.34" }
%"struct.std::_Head_base.34" = type { ptr }
%"class.std::unique_ptr.35" = type { %"struct.std::__uniq_ptr_data.36" }
%"struct.std::__uniq_ptr_data.36" = type { %"class.std::__uniq_ptr_impl.37" }
%"class.std::__uniq_ptr_impl.37" = type { %"class.std::tuple.38" }
%"class.std::tuple.38" = type { %"struct.std::_Tuple_impl.39" }
%"struct.std::_Tuple_impl.39" = type { %"struct.std::_Head_base.42" }
%"struct.std::_Head_base.42" = type { ptr }
%"class.std::unique_ptr.43" = type { %"struct.std::__uniq_ptr_data.44" }
%"struct.std::__uniq_ptr_data.44" = type { %"class.std::__uniq_ptr_impl.45" }
%"class.std::__uniq_ptr_impl.45" = type { %"class.std::tuple.46" }
%"class.std::tuple.46" = type { %"struct.std::_Tuple_impl.47" }
%"struct.std::_Tuple_impl.47" = type { %"struct.std::_Head_base.50" }
%"struct.std::_Head_base.50" = type { ptr }
%"class.std::unique_ptr.51" = type { %"struct.std::__uniq_ptr_data.52" }
%"struct.std::__uniq_ptr_data.52" = type { %"class.std::__uniq_ptr_impl.53" }
%"class.std::__uniq_ptr_impl.53" = type { %"class.std::tuple.54" }
%"class.std::tuple.54" = type { %"struct.std::_Tuple_impl.55" }
%"struct.std::_Tuple_impl.55" = type { %"struct.std::_Head_base.58" }
%"struct.std::_Head_base.58" = type { ptr }
%"class.std::unique_ptr.59" = type { %"struct.std::__uniq_ptr_data.60" }
%"struct.std::__uniq_ptr_data.60" = type { %"class.std::__uniq_ptr_impl.61" }
%"class.std::__uniq_ptr_impl.61" = type { %"class.std::tuple.62" }
%"class.std::tuple.62" = type { %"struct.std::_Tuple_impl.63" }
%"struct.std::_Tuple_impl.63" = type { %"struct.std::_Head_base.66" }
%"struct.std::_Head_base.66" = type { ptr }
%"class.std::unique_ptr.67" = type { %"struct.std::__uniq_ptr_data.68" }
%"struct.std::__uniq_ptr_data.68" = type { %"class.std::__uniq_ptr_impl.69" }
%"class.std::__uniq_ptr_impl.69" = type { %"class.std::tuple.70" }
%"class.std::tuple.70" = type { %"struct.std::_Tuple_impl.71" }
%"struct.std::_Tuple_impl.71" = type { %"struct.std::_Head_base.74" }
%"struct.std::_Head_base.74" = type { ptr }
%"class.std::unique_ptr.75" = type { %"struct.std::__uniq_ptr_data.76" }
%"struct.std::__uniq_ptr_data.76" = type { %"class.std::__uniq_ptr_impl.77" }
%"class.std::__uniq_ptr_impl.77" = type { %"class.std::tuple.78" }
%"class.std::tuple.78" = type { %"struct.std::_Tuple_impl.79" }
%"struct.std::_Tuple_impl.79" = type { %"struct.std::_Head_base.82" }
%"struct.std::_Head_base.82" = type { ptr }
%"class.std::unique_ptr.83" = type { %"struct.std::__uniq_ptr_data.84" }
%"struct.std::__uniq_ptr_data.84" = type { %"class.std::__uniq_ptr_impl.85" }
%"class.std::__uniq_ptr_impl.85" = type { %"class.std::tuple.86" }
%"class.std::tuple.86" = type { %"struct.std::_Tuple_impl.87" }
%"struct.std::_Tuple_impl.87" = type { %"struct.std::_Head_base.90" }
%"struct.std::_Head_base.90" = type { ptr }
%"class.std::unique_ptr.91" = type { %"struct.std::__uniq_ptr_data.92" }
%"struct.std::__uniq_ptr_data.92" = type { %"class.std::__uniq_ptr_impl.93" }
%"class.std::__uniq_ptr_impl.93" = type { %"class.std::tuple.94" }
%"class.std::tuple.94" = type { %"struct.std::_Tuple_impl.95" }
%"struct.std::_Tuple_impl.95" = type { %"struct.std::_Head_base.98" }
%"struct.std::_Head_base.98" = type { ptr }
%"class.std::map" = type { %"class.std::_Rb_tree" }
%"class.std::_Rb_tree" = type { %"struct.std::_Rb_tree<std::__cxx11::basic_string<char>, std::pair<const std::__cxx11::basic_string<char>, std::unique_ptr<std::any>>, std::_Select1st<std::pair<const std::__cxx11::basic_string<char>, std::unique_ptr<std::any>>>, std::less<std::__cxx11::basic_string<char>>>::_Rb_tree_impl" }
%"struct.std::_Rb_tree<std::__cxx11::basic_string<char>, std::pair<const std::__cxx11::basic_string<char>, std::unique_ptr<std::any>>, std::_Select1st<std::pair<const std::__cxx11::basic_string<char>, std::unique_ptr<std::any>>>, std::less<std::__cxx11::basic_string<char>>>::_Rb_tree_impl" = type { %"struct.std::_Rb_tree_key_compare", %"struct.std::_Rb_tree_header" }
%"struct.std::_Rb_tree_key_compare" = type { %"struct.std::less" }
%"struct.std::less" = type { i8 }
%"struct.std::_Rb_tree_header" = type { %"struct.std::_Rb_tree_node_base", i64 }
%"struct.std::_Rb_tree_node_base" = type { i32, ptr, ptr, ptr }
%"class.std::__cxx11::basic_string" = type { %"struct.std::__cxx11::basic_string<char>::_Alloc_hider", i64, %union.anon }
%"struct.std::__cxx11::basic_string<char>::_Alloc_hider" = type { ptr }
%union.anon = type { i64, [8 x i8] }
%struct.t_commrec = type <{ i32, i32, i32, i32, ptr, ptr, i32, [4 x i8], ptr, i32, i32, %struct.gmx_nodecomm_t, %"class.std::unique_ptr.299", ptr, i32, [4 x i8] }>
%struct.gmx_nodecomm_t = type { i8, ptr, i32, ptr }
%"class.std::unique_ptr.299" = type { %"struct.std::__uniq_ptr_data.300" }
%"struct.std::__uniq_ptr_data.300" = type { %"class.std::__uniq_ptr_impl.301" }
%"class.std::__uniq_ptr_impl.301" = type { %"class.std::tuple.302" }
%"class.std::tuple.302" = type { %"struct.std::_Tuple_impl.303" }
%"struct.std::_Tuple_impl.303" = type { %"struct.std::_Head_base.306" }
%"struct.std::_Head_base.306" = type { ptr }
%struct.t_inputrec = type { i32, i32, i64, i32, i64, i32, i32, i32, i32, i32, i32, i32, i32, i32, i32, i32, double, double, i8, %"class.std::vector.307", float, float, float, i32, i32, i32, i32, float, float, i32, float, i32, i32, i8, i8, i32, float, i32, i32, i8, %struct.PressureCouplingOptions, [3 x float], [3 x float], i32, float, float, float, float, i32, i32, float, float, float, float, i8, i32, i32, float, float, i32, float, float, i32, %"class.std::unique_ptr.312", i8, %"class.std::unique_ptr.320", i8, %"class.std::unique_ptr.328", i32, float, i32, i8, i32, float, float, float, i32, float, float, i32, float, i32, i32, i32, i32, float, i32, i8, float, i64, i32, i32, float, [2 x i32], [2 x float], float, i8, %"class.std::unique_ptr.336", i8, %"class.std::unique_ptr.344", i8, %"class.std::unique_ptr.352", i32, ptr, i8, ptr, float, [3 x [3 x float]], i32, i32, i32, i32, float, float, float, float, %struct.t_grpopts, i8, i8, i8, i8, ptr, %"class.std::unique_ptr.360" }
%"class.std::vector.307" = type { %"struct.std::_Vector_base.308" }
%"struct.std::_Vector_base.308" = type { %"struct.std::_Vector_base<gmx::MtsLevel, std::allocator<gmx::MtsLevel>>::_Vector_impl" }
%"struct.std::_Vector_base<gmx::MtsLevel, std::allocator<gmx::MtsLevel>>::_Vector_impl" = type { %"struct.std::_Vector_base<gmx::MtsLevel, std::allocator<gmx::MtsLevel>>::_Vector_impl_data" }
%"struct.std::_Vector_base<gmx::MtsLevel, std::allocator<gmx::MtsLevel>>::_Vector_impl_data" = type { ptr, ptr, ptr }
%struct.PressureCouplingOptions = type { i32, i32, i32, float, [3 x [3 x float]], [3 x [3 x float]], i32 }
%"class.std::unique_ptr.312" = type { %"struct.std::__uniq_ptr_data.313" }
%"struct.std::__uniq_ptr_data.313" = type { %"class.std::__uniq_ptr_impl.314" }
%"class.std::__uniq_ptr_impl.314" = type { %"class.std::tuple.315" }
%"class.std::tuple.315" = type { %"struct.std::_Tuple_impl.316" }
%"struct.std::_Tuple_impl.316" = type { %"struct.std::_Head_base.319" }
%"struct.std::_Head_base.319" = type { ptr }
%"class.std::unique_ptr.320" = type { %"struct.std::__uniq_ptr_data.321" }
%"struct.std::__uniq_ptr_data.321" = type { %"class.std::__uniq_ptr_impl.322" }
%"class.std::__uniq_ptr_impl.322" = type { %"class.std::tuple.323" }
%"class.std::tuple.323" = type { %"struct.std::_Tuple_impl.324" }
%"struct.std::_Tuple_impl.324" = type { %"struct.std::_Head_base.327" }
%"struct.std::_Head_base.327" = type { ptr }
%"class.std::unique_ptr.328" = type { %"struct.std::__uniq_ptr_data.329" }
%"struct.std::__uniq_ptr_data.329" = type { %"class.std::__uniq_ptr_impl.330" }
%"class.std::__uniq_ptr_impl.330" = type { %"class.std::tuple.331" }
%"class.std::tuple.331" = type { %"struct.std::_Tuple_impl.332" }
%"struct.std::_Tuple_impl.332" = type { %"struct.std::_Head_base.335" }
%"struct.std::_Head_base.335" = type { ptr }
%"class.std::unique_ptr.336" = type { %"struct.std::__uniq_ptr_data.337" }
%"struct.std::__uniq_ptr_data.337" = type { %"class.std::__uniq_ptr_impl.338" }
%"class.std::__uniq_ptr_impl.338" = type { %"class.std::tuple.339" }
%"class.std::tuple.339" = type { %"struct.std::_Tuple_impl.340" }
%"struct.std::_Tuple_impl.340" = type { %"struct.std::_Head_base.343" }
%"struct.std::_Head_base.343" = type { ptr }
%"class.std::unique_ptr.344" = type { %"struct.std::__uniq_ptr_data.345" }
%"struct.std::__uniq_ptr_data.345" = type { %"class.std::__uniq_ptr_impl.346" }
%"class.std::__uniq_ptr_impl.346" = type { %"class.std::tuple.347" }
%"class.std::tuple.347" = type { %"struct.std::_Tuple_impl.348" }
%"struct.std::_Tuple_impl.348" = type { %"struct.std::_Head_base.351" }
%"struct.std::_Head_base.351" = type { ptr }
%"class.std::unique_ptr.352" = type { %"struct.std::__uniq_ptr_data.353" }
%"struct.std::__uniq_ptr_data.353" = type { %"class.std::__uniq_ptr_impl.354" }
%"class.std::__uniq_ptr_impl.354" = type { %"class.std::tuple.355" }
%"class.std::tuple.355" = type { %"struct.std::_Tuple_impl.356" }
%"struct.std::_Tuple_impl.356" = type { %"struct.std::_Head_base.359" }
%"struct.std::_Head_base.359" = type { ptr }
%struct.t_grpopts = type <{ i32, i32, i32, i32, i32, [4 x i8], ptr, ptr, ptr, ptr, ptr, ptr, ptr, ptr, ptr, ptr, i32, [4 x i8] }>
%"class.std::unique_ptr.360" = type { %"struct.std::__uniq_ptr_data.361" }
%"struct.std::__uniq_ptr_data.361" = type { %"class.std::__uniq_ptr_impl.362" }
%"class.std::__uniq_ptr_impl.362" = type { %"class.std::tuple.363" }
%"class.std::tuple.363" = type { %"struct.std::_Tuple_impl.364" }
%"struct.std::_Tuple_impl.364" = type { %"struct.std::_Head_base.367" }
%"struct.std::_Head_base.367" = type { ptr }

; Function Attrs: mustprogress nounwind uwtable
define linkonce_odr noundef i32 @_Z17getThisRankDutiesPK9t_commrec(ptr noundef %0) #0 comdat {
  %2 = alloca ptr, align 8
  store ptr %0, ptr %2, align 8
  %3 = load ptr, ptr %2, align 8
  %4 = getelementptr inbounds %struct.t_commrec, ptr %3, i32 0, i32 14
  %5 = load i32, ptr %4, align 8
  ret i32 %5
}

; Function Attrs: mustprogress uwtable
define linkonce_odr noundef zeroext i1 @_Z15thisRankHasDutyPK9t_commreci(ptr noundef %0, i32 noundef %1) #3 comdat {
  %3 = alloca ptr, align 8
  %4 = alloca i32, align 4
  store ptr %0, ptr %3, align 8
  store i32 %1, ptr %4, align 4
  %5 = load ptr, ptr %3, align 8
  %6 = call noundef i32 @_Z17getThisRankDutiesPK9t_commrec(ptr noundef %5)
  %7 = load i32, ptr %4, align 4
  %8 = and i32 %6, %7
  %9 = icmp ne i32 %8, 0
  ret i1 %9
}

; Function Attrs: mustprogress uwtable
define void @_ZN3gmx25ModularSimulatorAlgorithm17simulatorTeardownEv(ptr noundef nonnull align 8 dereferenceable(448) %0) #3 align 2 {
  %2 = alloca ptr, align 8
  store ptr %0, ptr %2, align 8
  %3 = load ptr, ptr %2, align 8
  %4 = getelementptr inbounds %"class.gmx::ModularSimulatorAlgorithm", ptr %3, i32 0, i32 33
  %5 = load ptr, ptr %4, align 8
  call void @_Z28walltime_accounting_end_timeP23gmx_walltime_accounting(ptr noundef %5)
  %6 = getelementptr inbounds %"class.gmx::ModularSimulatorAlgorithm", ptr %3, i32 0, i32 26
  %7 = load ptr, ptr %6, align 8
  %8 = call noundef zeroext i1 @_Z15thisRankHasDutyPK9t_commreci(ptr noundef %7, i32 noundef 2)
  br i1 %8, label %12, label %9

9:                                                ; preds = %1
  %10 = getelementptr inbounds %"class.gmx::ModularSimulatorAlgorithm", ptr %3, i32 0, i32 26
  %11 = load ptr, ptr %10, align 8
  call void @_Z19gmx_pme_send_finishPK9t_commrec(ptr noundef %11)
  br label %12

12:                                               ; preds = %9, %1
  %13 = getelementptr inbounds %"class.gmx::ModularSimulatorAlgorithm", ptr %3, i32 0, i32 33
  %14 = load ptr, ptr %13, align 8
  %15 = getelementptr inbounds %"class.gmx::ModularSimulatorAlgorithm", ptr %3, i32 0, i32 19
  %16 = load i64, ptr %15, align 8
  %17 = getelementptr inbounds %"class.gmx::ModularSimulatorAlgorithm", ptr %3, i32 0, i32 29
  %18 = load ptr, ptr %17, align 8
  %19 = getelementptr inbounds %struct.t_inputrec, ptr %18, i32 0, i32 4
  %20 = load i64, ptr %19, align 8
  %21 = sub nsw i64 %16, %20
  call void @_Z35walltime_accounting_set_nsteps_doneP23gmx_walltime_accountingl(ptr noundef %14, i64 noundef %21)
  ret void
}