; Function Attrs: mustprogress uwtable
define void @_ZN3gmx25ModularSimulatorAlgorithm17simulatorTeardownEv(ptr nocapture noundef nonnull readonly align 8 dereferenceable(448) %0) local_unnamed_addr #3 align 2 {
  %2 = getelementptr inbounds i8, ptr %0, i64 440
  %3 = load ptr, ptr %2, align 8
  tail call void @_Z28walltime_accounting_end_timeP23gmx_walltime_accounting(ptr noundef %3)
  %4 = getelementptr inbounds i8, ptr %0, i64 384
  %5 = load ptr, ptr %4, align 8
  %6 = getelementptr inbounds i8, ptr %5, i64 104
  %7 = load i32, ptr %6, align 8
  %8 = and i32 %7, 2
  %.not = icmp eq i32 %8, 0
  br i1 %.not, label %9, label %10

9:                                                ; preds = %1
  tail call void @_Z19gmx_pme_send_finishPK9t_commrec(ptr noundef nonnull %5)
  br label %10

10:                                               ; preds = %9, %1
  %11 = load ptr, ptr %2, align 8
  %12 = getelementptr inbounds i8, ptr %0, i64 304
  %13 = load i64, ptr %12, align 8
  %14 = getelementptr inbounds i8, ptr %0, i64 408
  %15 = load ptr, ptr %14, align 8
  %16 = getelementptr inbounds i8, ptr %15, i64 24
  %17 = load i64, ptr %16, align 8
  %18 = sub nsw i64 %13, %17
  tail call void @_Z35walltime_accounting_set_nsteps_doneP23gmx_walltime_accountingl(ptr noundef %11, i64 noundef %18)
  ret void
}